; ModuleID = '57/593.c'
source_filename = "57/593.c"
target datalayout = "e-m:e-p270:32:32-p271:32:32-p272:64:64-i64:64-f80:128-n8:16:32:64-S128"
target triple = "x86_64-pc-linux-gnu"

@.str = private unnamed_addr constant [3 x i8] c"%d\00", align 1
@.str.1 = private unnamed_addr constant [3 x i8] c"%s\00", align 1

; Function Attrs: noinline nounwind uwtable
define dso_local i32 @main() #0 {
  %1 = alloca i32, align 4
  %2 = alloca [52 x [35 x i8]], align 16
  %3 = alloca i32, align 4
  %4 = alloca i32, align 4
  %5 = alloca i32, align 4
  store i32 0, i32* %1, align 4
  store i32 0, i32* %3, align 4
  br label %6

6:                                                ; preds = %24, %0
  %7 = load i32, i32* %3, align 4
  %8 = icmp slt i32 %7, 52
  br i1 %8, label %9, label %27

9:                                                ; preds = %6
  store i32 0, i32* %4, align 4
  br label %10

10:                                               ; preds = %20, %9
  %11 = load i32, i32* %4, align 4
  %12 = icmp slt i32 %11, 35
  br i1 %12, label %13, label %23

13:                                               ; preds = %10
  %14 = load i32, i32* %3, align 4
  %15 = sext i32 %14 to i64
  %16 = getelementptr inbounds [52 x [35 x i8]], [52 x [35 x i8]]* %2, i64 0, i64 %15
  %17 = load i32, i32* %4, align 4
  %18 = sext i32 %17 to i64
  %19 = getelementptr inbounds [35 x i8], [35 x i8]* %16, i64 0, i64 %18
  store i8 0, i8* %19, align 1
  br label %20

20:                                               ; preds = %13
  %21 = load i32, i32* %4, align 4
  %22 = add nsw i32 %21, 1
  store i32 %22, i32* %4, align 4
  br label %10

23:                                               ; preds = %10
  br label %24

24:                                               ; preds = %23
  %25 = load i32, i32* %3, align 4
  %26 = add nsw i32 %25, 1
  store i32 %26, i32* %3, align 4
  br label %6

27:                                               ; preds = %6
  %28 = call i32 (i8*, ...) @__isoc99_scanf(i8* getelementptr inbounds ([3 x i8], [3 x i8]* @.str, i64 0, i64 0), i32* %5)
  store i32 0, i32* %3, align 4
  br label %29

29:                                               ; preds = %151, %27
  %30 = load i32, i32* %3, align 4
  %31 = load i32, i32* %5, align 4
  %32 = icmp slt i32 %30, %31
  br i1 %32, label %33, label %154

33:                                               ; preds = %29
  %34 = load i32, i32* %3, align 4
  %35 = sext i32 %34 to i64
  %36 = getelementptr inbounds [52 x [35 x i8]], [52 x [35 x i8]]* %2, i64 0, i64 %35
  %37 = getelementptr inbounds [35 x i8], [35 x i8]* %36, i64 0, i64 0
  %38 = call i32 (i8*, ...) @__isoc99_scanf(i8* getelementptr inbounds ([3 x i8], [3 x i8]* @.str.1, i64 0, i64 0), i8* %37)
  %39 = load i32, i32* %3, align 4
  %40 = sext i32 %39 to i64
  %41 = getelementptr inbounds [52 x [35 x i8]], [52 x [35 x i8]]* %2, i64 0, i64 %40
  %42 = getelementptr inbounds [35 x i8], [35 x i8]* %41, i64 0, i64 0
  %43 = call i64 @strlen(i8* %42) #3
  %44 = sub i64 %43, 1
  %45 = trunc i64 %44 to i32
  store i32 %45, i32* %4, align 4
  %46 = load i32, i32* %3, align 4
  %47 = sext i32 %46 to i64
  %48 = getelementptr inbounds [52 x [35 x i8]], [52 x [35 x i8]]* %2, i64 0, i64 %47
  %49 = load i32, i32* %4, align 4
  %50 = sext i32 %49 to i64
  %51 = getelementptr inbounds [35 x i8], [35 x i8]* %48, i64 0, i64 %50
  %52 = load i8, i8* %51, align 1
  %53 = sext i8 %52 to i32
  %54 = icmp eq i32 %53, 114
  br i1 %54, label %55, label %75

55:                                               ; preds = %33
  %56 = load i32, i32* %3, align 4
  %57 = sext i32 %56 to i64
  %58 = getelementptr inbounds [52 x [35 x i8]], [52 x [35 x i8]]* %2, i64 0, i64 %57
  %59 = load i32, i32* %4, align 4
  %60 = sub nsw i32 %59, 1
  %61 = sext i32 %60 to i64
  %62 = getelementptr inbounds [35 x i8], [35 x i8]* %58, i64 0, i64 %61
  %63 = load i8, i8* %62, align 1
  %64 = sext i8 %63 to i32
  %65 = icmp eq i32 %64, 101
  br i1 %65, label %66, label %74

66:                                               ; preds = %55
  %67 = load i32, i32* %3, align 4
  %68 = sext i32 %67 to i64
  %69 = getelementptr inbounds [52 x [35 x i8]], [52 x [35 x i8]]* %2, i64 0, i64 %68
  %70 = load i32, i32* %4, align 4
  %71 = sub nsw i32 %70, 1
  %72 = sext i32 %71 to i64
  %73 = getelementptr inbounds [35 x i8], [35 x i8]* %69, i64 0, i64 %72
  store i8 0, i8* %73, align 1
  br label %74

74:                                               ; preds = %66, %55
  br label %150

75:                                               ; preds = %33
  %76 = load i32, i32* %3, align 4
  %77 = sext i32 %76 to i64
  %78 = getelementptr inbounds [52 x [35 x i8]], [52 x [35 x i8]]* %2, i64 0, i64 %77
  %79 = load i32, i32* %4, align 4
  %80 = sext i32 %79 to i64
  %81 = getelementptr inbounds [35 x i8], [35 x i8]* %78, i64 0, i64 %80
  %82 = load i8, i8* %81, align 1
  %83 = sext i8 %82 to i32
  %84 = icmp eq i32 %83, 121
  br i1 %84, label %85, label %105

85:                                               ; preds = %75
  %86 = load i32, i32* %3, align 4
  %87 = sext i32 %86 to i64
  %88 = getelementptr inbounds [52 x [35 x i8]], [52 x [35 x i8]]* %2, i64 0, i64 %87
  %89 = load i32, i32* %4, align 4
  %90 = sub nsw i32 %89, 1
  %91 = sext i32 %90 to i64
  %92 = getelementptr inbounds [35 x i8], [35 x i8]* %88, i64 0, i64 %91
  %93 = load i8, i8* %92, align 1
  %94 = sext i8 %93 to i32
  %95 = icmp eq i32 %94, 108
  br i1 %95, label %96, label %104

96:                                               ; preds = %85
  %97 = load i32, i32* %3, align 4
  %98 = sext i32 %97 to i64
  %99 = getelementptr inbounds [52 x [35 x i8]], [52 x [35 x i8]]* %2, i64 0, i64 %98
  %100 = load i32, i32* %4, align 4
  %101 = sub nsw i32 %100, 1
  %102 = sext i32 %101 to i64
  %103 = getelementptr inbounds [35 x i8], [35 x i8]* %99, i64 0, i64 %102
  store i8 0, i8* %103, align 1
  br label %104

104:                                              ; preds = %96, %85
  br label %149

105:                                              ; preds = %75
  %106 = load i32, i32* %3, align 4
  %107 = sext i32 %106 to i64
  %108 = getelementptr inbounds [52 x [35 x i8]], [52 x [35 x i8]]* %2, i64 0, i64 %107
  %109 = load i32, i32* %4, align 4
  %110 = sext i32 %109 to i64
  %111 = getelementptr inbounds [35 x i8], [35 x i8]* %108, i64 0, i64 %110
  %112 = load i8, i8* %111, align 1
  %113 = sext i8 %112 to i32
  %114 = icmp eq i32 %113, 103
  br i1 %114, label %115, label %147

115:                                              ; preds = %105
  %116 = load i32, i32* %3, align 4
  %117 = sext i32 %116 to i64
  %118 = getelementptr inbounds [52 x [35 x i8]], [52 x [35 x i8]]* %2, i64 0, i64 %117
  %119 = load i32, i32* %4, align 4
  %120 = sub nsw i32 %119, 1
  %121 = sext i32 %120 to i64
  %122 = getelementptr inbounds [35 x i8], [35 x i8]* %118, i64 0, i64 %121
  %123 = load i8, i8* %122, align 1
  %124 = sext i8 %123 to i32
  %125 = icmp eq i32 %124, 110
  br i1 %125, label %126, label %146

126:                                              ; preds = %115
  %127 = load i32, i32* %3, align 4
  %128 = sext i32 %127 to i64
  %129 = getelementptr inbounds [52 x [35 x i8]], [52 x [35 x i8]]* %2, i64 0, i64 %128
  %130 = load i32, i32* %4, align 4
  %131 = sub nsw i32 %130, 2
  %132 = sext i32 %131 to i64
  %133 = getelementptr inbounds [35 x i8], [35 x i8]* %129, i64 0, i64 %132
  %134 = load i8, i8* %133, align 1
  %135 = sext i8 %134 to i32
  %136 = icmp eq i32 %135, 105
  br i1 %136, label %137, label %145

137:                                              ; preds = %126
  %138 = load i32, i32* %3, align 4
  %139 = sext i32 %138 to i64
  %140 = getelementptr inbounds [52 x [35 x i8]], [52 x [35 x i8]]* %2, i64 0, i64 %139
  %141 = load i32, i32* %4, align 4
  %142 = sub nsw i32 %141, 2
  %143 = sext i32 %142 to i64
  %144 = getelementptr inbounds [35 x i8], [35 x i8]* %140, i64 0, i64 %143
  store i8 0, i8* %144, align 1
  br label %145

145:                                              ; preds = %137, %126
  br label %146

146:                                              ; preds = %145, %115
  br label %148

147:                                              ; preds = %105
  br label %151

148:                                              ; preds = %146
  br label %149

149:                                              ; preds = %148, %104
  br label %150

150:                                              ; preds = %149, %74
  br label %151

151:                                              ; preds = %150, %147
  %152 = load i32, i32* %3, align 4
  %153 = add nsw i32 %152, 1
  store i32 %153, i32* %3, align 4
  br label %29

154:                                              ; preds = %29
  store i32 0, i32* %3, align 4
  br label %155

155:                                              ; preds = %165, %154
  %156 = load i32, i32* %3, align 4
  %157 = load i32, i32* %5, align 4
  %158 = icmp slt i32 %156, %157
  br i1 %158, label %159, label %168

159:                                              ; preds = %155
  %160 = load i32, i32* %3, align 4
  %161 = sext i32 %160 to i64
  %162 = getelementptr inbounds [52 x [35 x i8]], [52 x [35 x i8]]* %2, i64 0, i64 %161
  %163 = getelementptr inbounds [35 x i8], [35 x i8]* %162, i64 0, i64 0
  %164 = call i32 @puts(i8* %163)
  br label %165

165:                                              ; preds = %159
  %166 = load i32, i32* %3, align 4
  %167 = add nsw i32 %166, 1
  store i32 %167, i32* %3, align 4
  br label %155

168:                                              ; preds = %155
  ret i32 0
}

declare dso_local i32 @__isoc99_scanf(i8*, ...) #1

; Function Attrs: nounwind readonly
declare dso_local i64 @strlen(i8*) #2

declare dso_local i32 @puts(i8*) #1


!llvm.module.flags = !{!0}
!llvm.ident = !{!1}

!0 = !{i32 1, !"wchar_size", i32 4}
!1 = !{!"clang version 10.0.0-4ubuntu1 "}
